; Function Attrs: mustprogress nofree nounwind uwtable
define internal void @_ZN12_GLOBAL__N_14File5closeEv(ptr nocapture noundef nonnull align 8 dereferenceable(113) %0) unnamed_addr #17 align 2 {
  %2 = getelementptr inbounds i8, ptr %0, i64 24
  %3 = load i8, ptr %2, align 8
  %4 = and i8 %3, 1
  %.not = icmp eq i8 %4, 0
  br i1 %.not, label %13, label %5

5:                                                ; preds = %1
  %6 = getelementptr inbounds i8, ptr %0, i64 112
  %7 = atomicrmw xchg ptr %6, i8 1 seq_cst, align 1
  %8 = and i8 %7, 1
  %.not1 = icmp eq i8 %8, 0
  br i1 %.not1, label %9, label %13

9:                                                ; preds = %5
  %10 = getelementptr inbounds i8, ptr %0, i64 16
  %11 = load ptr, ptr %10, align 8
  %12 = tail call i32 @fclose(ptr noundef %11)
  br label %13

13:                                               ; preds = %5, %9, %1
  ret void
}